target datalayout = "e-m:e-p270:32:32-p271:32:32-p272:64:64-i64:64-i128:128-f80:128-n8:16:32:64-S128"
target triple = "x86_64-pc-linux-gnu"

%struct.AVFilterContext = type { ptr, ptr, ptr, ptr, ptr, i32, ptr, ptr, i32, ptr, ptr, i32, i32, ptr, ptr, ptr, ptr, i32, ptr, i32, i32 }
%struct.FFTFILTContext = type { ptr, i32, i32, i32, i32, [4 x i32], [4 x i32], [32 x [4 x ptr]], [32 x [4 x ptr]], [32 x [4 x ptr]], [32 x [4 x ptr]], ptr, ptr, ptr, ptr, [4 x i32], [4 x i32], [4 x i64], [4 x i64], [4 x i64], [4 x i64], [4 x ptr], [4 x ptr], [4 x ptr], [4 x ptr], [4 x i32], [4 x ptr], [4 x ptr], [4 x ptr], ptr, ptr }
%struct.AVChannelLayout = type { i32, i32, %union.anon.1, ptr }
%union.anon.1 = type { i64 }
%struct.AVRational = type { i32, i32 }
%struct.AVFrame = type { [8 x ptr], [8 x i32], ptr, i32, i32, i32, i32, i32, %struct.AVRational, i64, i64, %struct.AVRational, i32, ptr, i32, i32, [8 x ptr], ptr, i32, ptr, i32, i32, i32, i32, i32, i32, i32, i64, ptr, i32, ptr, ptr, i64, i64, i64, i64, ptr, %struct.AVChannelLayout, i64 }

; Function Attrs: alwaysinline nounwind willreturn memory(none) uwtable
define internal i32 @av_clip_c(i32 noundef %0, i32 noundef %1, i32 noundef %2) #7 {
  %4 = alloca i32, align 4
  %5 = alloca i32, align 4
  %6 = alloca i32, align 4
  %7 = alloca i32, align 4
  store i32 %0, ptr %5, align 4, !tbaa !24
  store i32 %1, ptr %6, align 4, !tbaa !24
  store i32 %2, ptr %7, align 4, !tbaa !24
  %8 = load i32, ptr %5, align 4, !tbaa !24
  %9 = load i32, ptr %6, align 4, !tbaa !24
  %10 = icmp slt i32 %8, %9
  br i1 %10, label %11, label %13

11:                                               ; preds = %3
  %12 = load i32, ptr %6, align 4, !tbaa !24
  store i32 %12, ptr %4, align 4
  br label %21

13:                                               ; preds = %3
  %14 = load i32, ptr %5, align 4, !tbaa !24
  %15 = load i32, ptr %7, align 4, !tbaa !24
  %16 = icmp sgt i32 %14, %15
  br i1 %16, label %17, label %19

17:                                               ; preds = %13
  %18 = load i32, ptr %7, align 4, !tbaa !24
  store i32 %18, ptr %4, align 4
  br label %21

19:                                               ; preds = %13
  %20 = load i32, ptr %5, align 4, !tbaa !24
  store i32 %20, ptr %4, align 4
  br label %21

21:                                               ; preds = %19, %17, %11
  %22 = load i32, ptr %4, align 4
  ret i32 %22
}

; Function Attrs: nounwind uwtable
define internal i32 @irdft_horizontal16(ptr noundef %0, ptr noundef %1, i32 noundef %2, i32 noundef %3) #1 {
  %5 = alloca ptr, align 8
  %6 = alloca ptr, align 8
  %7 = alloca i32, align 4
  %8 = alloca i32, align 4
  %9 = alloca ptr, align 8
  %10 = alloca ptr, align 8
  %11 = alloca i32, align 4
  %12 = alloca i32, align 4
  %13 = alloca i32, align 4
  %14 = alloca i32, align 4
  %15 = alloca i32, align 4
  %16 = alloca i32, align 4
  %17 = alloca i32, align 4
  %18 = alloca i32, align 4
  %19 = alloca i32, align 4
  %20 = alloca float, align 4
  %21 = alloca ptr, align 8
  %22 = alloca ptr, align 8
  %23 = alloca i32, align 4
  store ptr %0, ptr %5, align 8, !tbaa !4
  store ptr %1, ptr %6, align 8, !tbaa !26
  store i32 %2, ptr %7, align 4, !tbaa !24
  store i32 %3, ptr %8, align 4, !tbaa !24
  call void @llvm.lifetime.start.p0(i64 8, ptr %9) #10
  %24 = load ptr, ptr %5, align 8, !tbaa !4
  %25 = getelementptr inbounds nuw %struct.AVFilterContext, ptr %24, i32 0, i32 9
  %26 = load ptr, ptr %25, align 8, !tbaa !9
  store ptr %26, ptr %9, align 8, !tbaa !22
  call void @llvm.lifetime.start.p0(i64 8, ptr %10) #10
  %27 = load ptr, ptr %6, align 8, !tbaa !26
  store ptr %27, ptr %10, align 8, !tbaa !37
  call void @llvm.lifetime.start.p0(i64 4, ptr %11) #10
  store i32 0, ptr %11, align 4, !tbaa !24
  br label %28

28:                                               ; preds = %203, %4
  %29 = load i32, ptr %11, align 4, !tbaa !24
  %30 = load ptr, ptr %9, align 8, !tbaa !22
  %31 = getelementptr inbounds nuw %struct.FFTFILTContext, ptr %30, i32 0, i32 3
  %32 = load i32, ptr %31, align 8, !tbaa !51
  %33 = icmp slt i32 %29, %32
  br i1 %33, label %35, label %34

34:                                               ; preds = %28
  store i32 2, ptr %12, align 4
  call void @llvm.lifetime.end.p0(i64 4, ptr %11) #10
  br label %206

35:                                               ; preds = %28
  call void @llvm.lifetime.start.p0(i64 4, ptr %13) #10
  %36 = load ptr, ptr %9, align 8, !tbaa !22
  %37 = getelementptr inbounds nuw %struct.FFTFILTContext, ptr %36, i32 0, i32 2
  %38 = load i32, ptr %37, align 4, !tbaa !56
  %39 = shl i32 1, %38
  %40 = sub nsw i32 %39, 1
  store i32 %40, ptr %13, align 4, !tbaa !24
  call void @llvm.lifetime.start.p0(i64 4, ptr %14) #10
  %41 = load ptr, ptr %9, align 8, !tbaa !22
  %42 = getelementptr inbounds nuw %struct.FFTFILTContext, ptr %41, i32 0, i32 5
  %43 = load i32, ptr %11, align 4, !tbaa !24
  %44 = sext i32 %43 to i64
  %45 = getelementptr inbounds [4 x i32], ptr %42, i64 0, i64 %44
  %46 = load i32, ptr %45, align 4, !tbaa !24
  store i32 %46, ptr %14, align 4, !tbaa !24
  call void @llvm.lifetime.start.p0(i64 4, ptr %15) #10
  %47 = load ptr, ptr %9, align 8, !tbaa !22
  %48 = getelementptr inbounds nuw %struct.FFTFILTContext, ptr %47, i32 0, i32 6
  %49 = load i32, ptr %11, align 4, !tbaa !24
  %50 = sext i32 %49 to i64
  %51 = getelementptr inbounds [4 x i32], ptr %48, i64 0, i64 %50
  %52 = load i32, ptr %51, align 4, !tbaa !24
  store i32 %52, ptr %15, align 4, !tbaa !24
  call void @llvm.lifetime.start.p0(i64 4, ptr %16) #10
  %53 = load i32, ptr %15, align 4, !tbaa !24
  %54 = load i32, ptr %7, align 4, !tbaa !24
  %55 = mul nsw i32 %53, %54
  %56 = load i32, ptr %8, align 4, !tbaa !24
  %57 = sdiv i32 %55, %56
  store i32 %57, ptr %16, align 4, !tbaa !24
  call void @llvm.lifetime.start.p0(i64 4, ptr %17) #10
  %58 = load i32, ptr %15, align 4, !tbaa !24
  %59 = load i32, ptr %7, align 4, !tbaa !24
  %60 = add nsw i32 %59, 1
  %61 = mul nsw i32 %58, %60
  %62 = load i32, ptr %8, align 4, !tbaa !24
  %63 = sdiv i32 %61, %62
  store i32 %63, ptr %17, align 4, !tbaa !24
  call void @llvm.lifetime.start.p0(i64 4, ptr %18) #10
  %64 = load i32, ptr %16, align 4, !tbaa !24
  store i32 %64, ptr %18, align 4, !tbaa !24
  br label %65

65:                                               ; preds = %115, %35
  %66 = load i32, ptr %18, align 4, !tbaa !24
  %67 = load i32, ptr %17, align 4, !tbaa !24
  %68 = icmp slt i32 %66, %67
  br i1 %68, label %70, label %69

69:                                               ; preds = %65
  store i32 5, ptr %12, align 4
  call void @llvm.lifetime.end.p0(i64 4, ptr %18) #10
  br label %118

70:                                               ; preds = %65
  %71 = load ptr, ptr %9, align 8, !tbaa !22
  %72 = getelementptr inbounds nuw %struct.FFTFILTContext, ptr %71, i32 0, i32 12
  %73 = load ptr, ptr %72, align 8, !tbaa !111
  %74 = load ptr, ptr %9, align 8, !tbaa !22
  %75 = getelementptr inbounds nuw %struct.FFTFILTContext, ptr %74, i32 0, i32 9
  %76 = load i32, ptr %7, align 4, !tbaa !24
  %77 = sext i32 %76 to i64
  %78 = getelementptr inbounds [32 x [4 x ptr]], ptr %75, i64 0, i64 %77
  %79 = load i32, ptr %11, align 4, !tbaa !24
  %80 = sext i32 %79 to i64
  %81 = getelementptr inbounds [4 x ptr], ptr %78, i64 0, i64 %80
  %82 = load ptr, ptr %81, align 8, !tbaa !81
  %83 = load ptr, ptr %9, align 8, !tbaa !22
  %84 = getelementptr inbounds nuw %struct.FFTFILTContext, ptr %83, i32 0, i32 23
  %85 = load i32, ptr %11, align 4, !tbaa !24
  %86 = sext i32 %85 to i64
  %87 = getelementptr inbounds [4 x ptr], ptr %84, i64 0, i64 %86
  %88 = load ptr, ptr %87, align 8, !tbaa !57
  %89 = load i32, ptr %18, align 4, !tbaa !24
  %90 = sext i32 %89 to i64
  %91 = load ptr, ptr %9, align 8, !tbaa !22
  %92 = getelementptr inbounds nuw %struct.FFTFILTContext, ptr %91, i32 0, i32 17
  %93 = load i32, ptr %11, align 4, !tbaa !24
  %94 = sext i32 %93 to i64
  %95 = getelementptr inbounds [4 x i64], ptr %92, i64 0, i64 %94
  %96 = load i64, ptr %95, align 8, !tbaa !54
  %97 = mul i64 %90, %96
  %98 = getelementptr inbounds nuw float, ptr %88, i64 %97
  %99 = load ptr, ptr %9, align 8, !tbaa !22
  %100 = getelementptr inbounds nuw %struct.FFTFILTContext, ptr %99, i32 0, i32 21
  %101 = load i32, ptr %11, align 4, !tbaa !24
  %102 = sext i32 %101 to i64
  %103 = getelementptr inbounds [4 x ptr], ptr %100, i64 0, i64 %102
  %104 = load ptr, ptr %103, align 8, !tbaa !57
  %105 = load i32, ptr %18, align 4, !tbaa !24
  %106 = sext i32 %105 to i64
  %107 = load ptr, ptr %9, align 8, !tbaa !22
  %108 = getelementptr inbounds nuw %struct.FFTFILTContext, ptr %107, i32 0, i32 17
  %109 = load i32, ptr %11, align 4, !tbaa !24
  %110 = sext i32 %109 to i64
  %111 = getelementptr inbounds [4 x i64], ptr %108, i64 0, i64 %110
  %112 = load i64, ptr %111, align 8, !tbaa !54
  %113 = mul i64 %106, %112
  %114 = getelementptr inbounds nuw float, ptr %104, i64 %113
  call void %73(ptr noundef %82, ptr noundef %98, ptr noundef %114, i64 noundef 8)
  br label %115

115:                                              ; preds = %70
  %116 = load i32, ptr %18, align 4, !tbaa !24
  %117 = add nsw i32 %116, 1
  store i32 %117, ptr %18, align 4, !tbaa !24
  br label %65, !llvm.loop !124

118:                                              ; preds = %69
  call void @llvm.lifetime.start.p0(i64 4, ptr %19) #10
  %119 = load i32, ptr %16, align 4, !tbaa !24
  store i32 %119, ptr %19, align 4, !tbaa !24
  br label %120

120:                                              ; preds = %199, %118
  %121 = load i32, ptr %19, align 4, !tbaa !24
  %122 = load i32, ptr %17, align 4, !tbaa !24
  %123 = icmp slt i32 %121, %122
  br i1 %123, label %125, label %124

124:                                              ; preds = %120
  store i32 8, ptr %12, align 4
  call void @llvm.lifetime.end.p0(i64 4, ptr %19) #10
  br label %202

125:                                              ; preds = %120
  call void @llvm.lifetime.start.p0(i64 4, ptr %20) #10
  %126 = load ptr, ptr %9, align 8, !tbaa !22
  %127 = getelementptr inbounds nuw %struct.FFTFILTContext, ptr %126, i32 0, i32 19
  %128 = load i32, ptr %11, align 4, !tbaa !24
  %129 = sext i32 %128 to i64
  %130 = getelementptr inbounds [4 x i64], ptr %127, i64 0, i64 %129
  %131 = load i64, ptr %130, align 8, !tbaa !54
  %132 = load ptr, ptr %9, align 8, !tbaa !22
  %133 = getelementptr inbounds nuw %struct.FFTFILTContext, ptr %132, i32 0, i32 20
  %134 = load i32, ptr %11, align 4, !tbaa !24
  %135 = sext i32 %134 to i64
  %136 = getelementptr inbounds [4 x i64], ptr %133, i64 0, i64 %135
  %137 = load i64, ptr %136, align 8, !tbaa !54
  %138 = mul i64 %131, %137
  %139 = uitofp i64 %138 to float
  %140 = fdiv nsz float 1.000000e+00, %139
  store float %140, ptr %20, align 4, !tbaa !59
  call void @llvm.lifetime.start.p0(i64 8, ptr %21) #10
  %141 = load ptr, ptr %9, align 8, !tbaa !22
  %142 = getelementptr inbounds nuw %struct.FFTFILTContext, ptr %141, i32 0, i32 23
  %143 = load i32, ptr %11, align 4, !tbaa !24
  %144 = sext i32 %143 to i64
  %145 = getelementptr inbounds [4 x ptr], ptr %142, i64 0, i64 %144
  %146 = load ptr, ptr %145, align 8, !tbaa !57
  %147 = load i32, ptr %19, align 4, !tbaa !24
  %148 = sext i32 %147 to i64
  %149 = load ptr, ptr %9, align 8, !tbaa !22
  %150 = getelementptr inbounds nuw %struct.FFTFILTContext, ptr %149, i32 0, i32 17
  %151 = load i32, ptr %11, align 4, !tbaa !24
  %152 = sext i32 %151 to i64
  %153 = getelementptr inbounds [4 x i64], ptr %150, i64 0, i64 %152
  %154 = load i64, ptr %153, align 8, !tbaa !54
  %155 = mul i64 %148, %154
  %156 = getelementptr inbounds nuw float, ptr %146, i64 %155
  store ptr %156, ptr %21, align 8, !tbaa !57
  call void @llvm.lifetime.start.p0(i64 8, ptr %22) #10
  %157 = load ptr, ptr %10, align 8, !tbaa !37
  %158 = getelementptr inbounds nuw %struct.AVFrame, ptr %157, i32 0, i32 0
  %159 = load i32, ptr %11, align 4, !tbaa !24
  %160 = sext i32 %159 to i64
  %161 = getelementptr inbounds [8 x ptr], ptr %158, i64 0, i64 %160
  %162 = load ptr, ptr %161, align 8, !tbaa !25
  %163 = load i32, ptr %19, align 4, !tbaa !24
  %164 = load ptr, ptr %10, align 8, !tbaa !37
  %165 = getelementptr inbounds nuw %struct.AVFrame, ptr %164, i32 0, i32 1
  %166 = load i32, ptr %11, align 4, !tbaa !24
  %167 = sext i32 %166 to i64
  %168 = getelementptr inbounds [8 x i32], ptr %165, i64 0, i64 %167
  %169 = load i32, ptr %168, align 4, !tbaa !24
  %170 = mul nsw i32 %163, %169
  %171 = sext i32 %170 to i64
  %172 = getelementptr inbounds i8, ptr %162, i64 %171
  store ptr %172, ptr %22, align 8, !tbaa !116
  call void @llvm.lifetime.start.p0(i64 4, ptr %23) #10
  store i32 0, ptr %23, align 4, !tbaa !24
  br label %173

173:                                              ; preds = %195, %125
  %174 = load i32, ptr %23, align 4, !tbaa !24
  %175 = load i32, ptr %14, align 4, !tbaa !24
  %176 = icmp slt i32 %174, %175
  br i1 %176, label %178, label %177

177:                                              ; preds = %173
  store i32 11, ptr %12, align 4
  call void @llvm.lifetime.end.p0(i64 4, ptr %23) #10
  br label %198

178:                                              ; preds = %173
  %179 = load ptr, ptr %21, align 8, !tbaa !57
  %180 = load i32, ptr %23, align 4, !tbaa !24
  %181 = sext i32 %180 to i64
  %182 = getelementptr inbounds float, ptr %179, i64 %181
  %183 = load float, ptr %182, align 4, !tbaa !59
  %184 = load float, ptr %20, align 4, !tbaa !59
  %185 = fmul nsz float %183, %184
  %186 = call i64 @llvm.lrint.i64.f32(float %185)
  %187 = trunc i64 %186 to i32
  %188 = load i32, ptr %13, align 4, !tbaa !24
  %189 = call i32 @av_clip_c(i32 noundef %187, i32 noundef 0, i32 noundef %188) #12
  %190 = trunc i32 %189 to i16
  %191 = load ptr, ptr %22, align 8, !tbaa !116
  %192 = load i32, ptr %23, align 4, !tbaa !24
  %193 = sext i32 %192 to i64
  %194 = getelementptr inbounds i16, ptr %191, i64 %193
  store i16 %190, ptr %194, align 2, !tbaa !118
  br label %195

195:                                              ; preds = %178
  %196 = load i32, ptr %23, align 4, !tbaa !24
  %197 = add nsw i32 %196, 1
  store i32 %197, ptr %23, align 4, !tbaa !24
  br label %173, !llvm.loop !125

198:                                              ; preds = %177
  call void @llvm.lifetime.end.p0(i64 8, ptr %22) #10
  call void @llvm.lifetime.end.p0(i64 8, ptr %21) #10
  call void @llvm.lifetime.end.p0(i64 4, ptr %20) #10
  br label %199

199:                                              ; preds = %198
  %200 = load i32, ptr %19, align 4, !tbaa !24
  %201 = add nsw i32 %200, 1
  store i32 %201, ptr %19, align 4, !tbaa !24
  br label %120, !llvm.loop !126

202:                                              ; preds = %124
  call void @llvm.lifetime.end.p0(i64 4, ptr %17) #10
  call void @llvm.lifetime.end.p0(i64 4, ptr %16) #10
  call void @llvm.lifetime.end.p0(i64 4, ptr %15) #10
  call void @llvm.lifetime.end.p0(i64 4, ptr %14) #10
  call void @llvm.lifetime.end.p0(i64 4, ptr %13) #10
  br label %203

203:                                              ; preds = %202
  %204 = load i32, ptr %11, align 4, !tbaa !24
  %205 = add nsw i32 %204, 1
  store i32 %205, ptr %11, align 4, !tbaa !24
  br label %28, !llvm.loop !127

206:                                              ; preds = %34
  store i32 1, ptr %12, align 4
  call void @llvm.lifetime.end.p0(i64 8, ptr %10) #10
  call void @llvm.lifetime.end.p0(i64 8, ptr %9) #10
  ret i32 0
}