; Function Attrs: nounwind uwtable
define internal noundef i32 @irdft_horizontal16(ptr noundef readonly captures(none) %0, ptr noundef readonly captures(none) %1, i32 noundef %2, i32 noundef %3) #1 {
  %5 = getelementptr inbounds nuw i8, ptr %0, i64 72
  %6 = load ptr, ptr %5, align 8, !tbaa !4
  %7 = getelementptr inbounds nuw i8, ptr %6, i64 16
  %8 = load i32, ptr %7, align 8, !tbaa !48
  %9 = icmp sgt i32 %8, 0
  br i1 %9, label %.lr.ph71, label %._crit_edge

.lr.ph71:                                         ; preds = %4
  %10 = getelementptr inbounds nuw i8, ptr %6, i64 12
  %11 = getelementptr inbounds nuw i8, ptr %6, i64 24
  %12 = getelementptr inbounds nuw i8, ptr %6, i64 40
  %13 = add nsw i32 %2, 1
  %14 = getelementptr inbounds nuw i8, ptr %6, i64 4160
  %15 = getelementptr inbounds nuw i8, ptr %6, i64 2104
  %16 = sext i32 %2 to i64
  %17 = getelementptr inbounds nuw i8, ptr %6, i64 4408
  %18 = getelementptr inbounds nuw i8, ptr %6, i64 4216
  %19 = getelementptr inbounds nuw i8, ptr %6, i64 4344
  %20 = getelementptr inbounds nuw i8, ptr %6, i64 4280
  %21 = getelementptr inbounds nuw i8, ptr %6, i64 4312
  %22 = getelementptr inbounds nuw i8, ptr %1, i64 64
  br label %23

._crit_edge:                                      ; preds = %._crit_edge69, %4
  ret i32 0

23:                                               ; preds = %.lr.ph71, %._crit_edge69
  %indvars.iv83 = phi i64 [ 0, %.lr.ph71 ], [ %indvars.iv.next84, %._crit_edge69 ]
  %24 = load i32, ptr %10, align 4, !tbaa !50
  %notmask = shl nsw i32 -1, %24
  %25 = xor i32 %notmask, -1
  %26 = getelementptr inbounds nuw [4 x i32], ptr %11, i64 0, i64 %indvars.iv83
  %27 = load i32, ptr %26, align 4, !tbaa !20
  %28 = getelementptr inbounds nuw [4 x i32], ptr %12, i64 0, i64 %indvars.iv83
  %29 = load i32, ptr %28, align 4, !tbaa !20
  %30 = mul nsw i32 %29, %2
  %31 = sdiv i32 %30, %3
  %32 = mul nsw i32 %29, %13
  %33 = sdiv i32 %32, %3
  %34 = icmp slt i32 %31, %33
  br i1 %34, label %.lr.ph, label %._crit_edge69

.lr.ph:                                           ; preds = %23
  %35 = getelementptr inbounds [32 x [4 x ptr]], ptr %15, i64 0, i64 %16, i64 %indvars.iv83
  %36 = getelementptr inbounds nuw [4 x ptr], ptr %17, i64 0, i64 %indvars.iv83
  %37 = getelementptr inbounds nuw [4 x i64], ptr %18, i64 0, i64 %indvars.iv83
  %38 = getelementptr inbounds nuw [4 x ptr], ptr %19, i64 0, i64 %indvars.iv83
  %39 = sext i32 %31 to i64
  br label %72

.lr.ph68:                                         ; preds = %72
  %40 = getelementptr inbounds nuw [4 x i64], ptr %20, i64 0, i64 %indvars.iv83
  %41 = load i64, ptr %40, align 8, !tbaa !56
  %42 = getelementptr inbounds nuw [4 x i64], ptr %21, i64 0, i64 %indvars.iv83
  %43 = load i64, ptr %42, align 8, !tbaa !56
  %44 = mul i64 %43, %41
  %45 = uitofp i64 %44 to float
  %46 = fdiv nsz float 1.000000e+00, %45
  %47 = getelementptr inbounds nuw [4 x ptr], ptr %17, i64 0, i64 %indvars.iv83
  %48 = load ptr, ptr %47, align 8, !tbaa !63
  %49 = getelementptr inbounds nuw [4 x i64], ptr %18, i64 0, i64 %indvars.iv83
  %50 = load i64, ptr %49, align 8, !tbaa !56
  %51 = getelementptr inbounds nuw [8 x ptr], ptr %1, i64 0, i64 %indvars.iv83
  %52 = load ptr, ptr %51, align 8, !tbaa !21
  %53 = icmp sgt i32 %27, 0
  br i1 %53, label %.lr.ph66.us.preheader, label %._crit_edge69

.lr.ph66.us.preheader:                            ; preds = %.lr.ph68
  %54 = getelementptr inbounds nuw [8 x i32], ptr %22, i64 0, i64 %indvars.iv83
  %55 = load i32, ptr %54, align 4, !tbaa !20
  %56 = sext i32 %31 to i64
  %57 = sext i32 %55 to i64
  %wide.trip.count81 = sext i32 %33 to i64
  %wide.trip.count = zext nneg i32 %27 to i64
  br label %.lr.ph66.us

.lr.ph66.us:                                      ; preds = %.lr.ph66.us.preheader, %._crit_edge.us
  %indvars.iv78 = phi i64 [ %56, %.lr.ph66.us.preheader ], [ %indvars.iv.next79, %._crit_edge.us ]
  %58 = mul i64 %50, %indvars.iv78
  %59 = getelementptr inbounds nuw float, ptr %48, i64 %58
  %60 = mul nsw i64 %indvars.iv78, %57
  %61 = getelementptr inbounds i8, ptr %52, i64 %60
  br label %62

62:                                               ; preds = %.lr.ph66.us, %62
  %indvars.iv74 = phi i64 [ 0, %.lr.ph66.us ], [ %indvars.iv.next75, %62 ]
  %63 = getelementptr inbounds nuw float, ptr %59, i64 %indvars.iv74
  %64 = load float, ptr %63, align 4, !tbaa !65
  %65 = fmul nsz float %46, %64
  %66 = tail call i64 @llvm.lrint.i64.f32(float %65)
  %67 = trunc i64 %66 to i32
  %68 = icmp slt i32 %67, 0
  %..i.us = tail call i32 @llvm.smin.i32(i32 %67, i32 %25)
  %69 = trunc i32 %..i.us to i16
  %70 = select i1 %68, i16 0, i16 %69
  %71 = getelementptr inbounds nuw i16, ptr %61, i64 %indvars.iv74
  store i16 %70, ptr %71, align 2, !tbaa !110
  %indvars.iv.next75 = add nuw nsw i64 %indvars.iv74, 1
  %exitcond77.not = icmp eq i64 %indvars.iv.next75, %wide.trip.count
  br i1 %exitcond77.not, label %._crit_edge.us, label %62, !llvm.loop !115

._crit_edge.us:                                   ; preds = %62
  %indvars.iv.next79 = add nsw i64 %indvars.iv78, 1
  %exitcond82.not = icmp eq i64 %indvars.iv.next79, %wide.trip.count81
  br i1 %exitcond82.not, label %._crit_edge69, label %.lr.ph66.us, !llvm.loop !116

72:                                               ; preds = %.lr.ph, %72
  %indvars.iv = phi i64 [ %39, %.lr.ph ], [ %indvars.iv.next, %72 ]
  %73 = load ptr, ptr %14, align 8, !tbaa !106
  %74 = load ptr, ptr %35, align 8, !tbaa !87
  %75 = load ptr, ptr %36, align 8, !tbaa !63
  %76 = load i64, ptr %37, align 8, !tbaa !56
  %77 = mul i64 %76, %indvars.iv
  %78 = getelementptr inbounds nuw float, ptr %75, i64 %77
  %79 = load ptr, ptr %38, align 8, !tbaa !63
  %80 = getelementptr inbounds nuw float, ptr %79, i64 %77
  tail call void %73(ptr noundef %74, ptr noundef %78, ptr noundef %80, i64 noundef 8) #10
  %indvars.iv.next = add nsw i64 %indvars.iv, 1
  %lftr.wideiv = trunc i64 %indvars.iv.next to i32
  %exitcond.not = icmp eq i32 %33, %lftr.wideiv
  br i1 %exitcond.not, label %.lr.ph68, label %72, !llvm.loop !117

._crit_edge69:                                    ; preds = %._crit_edge.us, %.lr.ph68, %23
  %indvars.iv.next84 = add nuw nsw i64 %indvars.iv83, 1
  %81 = load i32, ptr %7, align 8, !tbaa !48
  %82 = sext i32 %81 to i64
  %83 = icmp slt i64 %indvars.iv.next84, %82
  br i1 %83, label %23, label %._crit_edge, !llvm.loop !118
}